; Function Attrs: null_pointer_is_valid sspstrong uwtable
define internal noundef zeroext i16 @be_csg_id(ptr noundef %0, ptr noundef %1, ptr readnone captures(none) %2, i32 noundef %3, i32 noundef %4, ptr readnone captures(none) %5, i32 %6) #1 {
  %8 = shl i32 %3, 3
  %9 = load i32, ptr @hf_gsm_a_bssmap_csg_id, align 4
  %10 = tail call ptr @proto_tree_add_split_bits_item_ret_val(ptr noundef %1, i32 noundef %9, ptr noundef %0, i32 noundef %8, ptr noundef nonnull @gsm_a_bssmap_csg_id_crumbs, ptr noundef null)
  %11 = add i32 %8, 32
  %12 = load i32, ptr @hf_gsm_a_bssmap_spare_bits, align 4
  %13 = tail call ptr @proto_tree_add_bits_item(ptr noundef %1, i32 noundef %12, ptr noundef %0, i32 noundef %11, i32 noundef 7, i32 noundef 0)
  %14 = add i32 %8, 39
  %15 = load i32, ptr @hf_gsm_a_bssmap_cell_access_mode, align 4
  %16 = tail call ptr @proto_tree_add_bits_item(ptr noundef %1, i32 noundef %15, ptr noundef %0, i32 noundef %14, i32 noundef 1, i32 noundef 0)
  %17 = trunc i32 %4 to i16
  ret i16 %17
}